target datalayout = "e-m:e-p270:32:32-p271:32:32-p272:64:64-i64:64-i128:128-f80:128-n8:16:32:64-S128"
target triple = "x86_64-unknown-linux-gnu"

%"struct.folly::None" = type { i8 }
%"class.folly::Optional" = type { %"struct.folly::Optional<unsigned long>::StorageTriviallyDestructible" }
%"struct.folly::Optional<unsigned long>::StorageTriviallyDestructible" = type <{ %union.anon.15, i8, [7 x i8] }>
%union.anon.15 = type { i64 }
%"struct.folly::unsafe_default_initialized_cv" = type { i8 }
%"class.folly::Optional.48" = type { %"struct.folly::Optional<proxygen::HTTPCodec::ExAttributes>::StorageTriviallyDestructible" }
%"struct.folly::Optional<proxygen::HTTPCodec::ExAttributes>::StorageTriviallyDestructible" = type { %union.anon.49, i8, [7 x i8] }
%union.anon.49 = type { %"struct.proxygen::HTTPCodec::ExAttributes" }
%"struct.proxygen::HTTPCodec::ExAttributes" = type <{ i64, i8, [7 x i8] }>

@_ZN5follyL4noneE = internal constant %"struct.folly::None" undef, align 1
@_ZN5folly26unsafe_default_initializedE = linkonce_odr constant %"struct.folly::unsafe_default_initialized_cv" undef, comdat, align 1

; Function Attrs: mustprogress nounwind uwtable
define linkonce_odr void @_ZN5folly8OptionalIN8proxygen9HTTPCodec12ExAttributesEE28StorageTriviallyDestructibleC2Ev(ptr noundef nonnull align 8 dereferenceable(17) %this) unnamed_addr #5 comdat align 2 {
entry:
  %this.addr.i = alloca ptr, align 8
  %this.addr = alloca ptr, align 8
  store ptr %this, ptr %this.addr, align 8
  %this1 = load ptr, ptr %this.addr, align 8
  %0 = getelementptr inbounds %"struct.folly::Optional<proxygen::HTTPCodec::ExAttributes>::StorageTriviallyDestructible", ptr %this1, i32 0, i32 0
  store ptr @_ZN5folly26unsafe_default_initializedE, ptr %this.addr.i, align 8
  store i8 0, ptr %0, align 8
  %hasValue = getelementptr inbounds %"struct.folly::Optional<proxygen::HTTPCodec::ExAttributes>::StorageTriviallyDestructible", ptr %this1, i32 0, i32 1
  store i8 0, ptr %hasValue, align 8
  ret void
}

; Function Attrs: noreturn nounwind uwtable
define linkonce_odr hidden void @__clang_call_terminate(ptr noundef %0) #11 comdat {
  %2 = call ptr @__cxa_begin_catch(ptr %0) #3
  call void @_ZSt9terminatev() #21
  unreachable
}

; Function Attrs: mustprogress nounwind uwtable
define linkonce_odr void @_ZN5folly8OptionalImE28StorageTriviallyDestructibleC2Ev(ptr noundef nonnull align 8 dereferenceable(9) %this) unnamed_addr #5 comdat align 2 {
entry:
  %this.addr.i = alloca ptr, align 8
  %this.addr = alloca ptr, align 8
  store ptr %this, ptr %this.addr, align 8
  %this1 = load ptr, ptr %this.addr, align 8
  %0 = getelementptr inbounds %"struct.folly::Optional<unsigned long>::StorageTriviallyDestructible", ptr %this1, i32 0, i32 0
  store ptr @_ZN5folly26unsafe_default_initializedE, ptr %this.addr.i, align 8
  store i8 0, ptr %0, align 8
  %hasValue = getelementptr inbounds %"struct.folly::Optional<unsigned long>::StorageTriviallyDestructible", ptr %this1, i32 0, i32 1
  store i8 0, ptr %hasValue, align 8
  ret void
}

; Function Attrs: mustprogress nounwind uwtable
define linkonce_odr void @_ZN5folly8OptionalIN8proxygen9HTTPCodec12ExAttributesEEC2ERKNS_4NoneE(ptr noundef nonnull align 8 dereferenceable(24) %this, ptr noundef nonnull align 1 dereferenceable(1) %0) unnamed_addr #5 comdat align 2 personality ptr @__gxx_personality_v0 {
entry:
  %this.addr = alloca ptr, align 8
  %.addr = alloca ptr, align 8
  store ptr %this, ptr %this.addr, align 8
  store ptr %0, ptr %.addr, align 8
  %this1 = load ptr, ptr %this.addr, align 8
  %storage_ = getelementptr inbounds %"class.folly::Optional.48", ptr %this1, i32 0, i32 0
  invoke void @_ZN5folly8OptionalIN8proxygen9HTTPCodec12ExAttributesEE28StorageTriviallyDestructibleC2Ev(ptr noundef nonnull align 8 dereferenceable(17) %storage_)
          to label %invoke.cont unwind label %terminate.lpad

invoke.cont:                                      ; preds = %entry
  ret void

terminate.lpad:                                   ; preds = %entry
  %1 = landingpad { ptr, i32 }
          catch ptr null
  %2 = extractvalue { ptr, i32 } %1, 0
  call void @__clang_call_terminate(ptr %2) #21
  unreachable
}

; Function Attrs: mustprogress nounwind uwtable
define linkonce_odr void @_ZN5folly8OptionalImEC2ERKNS_4NoneE(ptr noundef nonnull align 8 dereferenceable(16) %this, ptr noundef nonnull align 1 dereferenceable(1) %0) unnamed_addr #5 comdat align 2 personality ptr @__gxx_personality_v0 {
entry:
  %this.addr = alloca ptr, align 8
  %.addr = alloca ptr, align 8
  store ptr %this, ptr %this.addr, align 8
  store ptr %0, ptr %.addr, align 8
  %this1 = load ptr, ptr %this.addr, align 8
  %storage_ = getelementptr inbounds %"class.folly::Optional", ptr %this1, i32 0, i32 0
  invoke void @_ZN5folly8OptionalImE28StorageTriviallyDestructibleC2Ev(ptr noundef nonnull align 8 dereferenceable(9) %storage_)
          to label %invoke.cont unwind label %terminate.lpad

invoke.cont:                                      ; preds = %entry
  ret void

terminate.lpad:                                   ; preds = %entry
  %1 = landingpad { ptr, i32 }
          catch ptr null
  %2 = extractvalue { ptr, i32 } %1, 0
  call void @__clang_call_terminate(ptr %2) #21
  unreachable
}

; Function Attrs: mustprogress uwtable
define void @_ZN8proxygen10HTTP2Codec14generateHeaderERN5folly10IOBufQueueEmRKNS_11HTTPMessageEbPNS_14HTTPHeaderSizeERKNS1_8OptionalINS_11HTTPHeadersEEE(ptr noundef nonnull align 8 dereferenceable(1062) %this, ptr noundef nonnull align 8 dereferenceable(72) %writeBuf, i64 noundef %stream, ptr noundef nonnull align 8 dereferenceable(616) %msg, i1 noundef zeroext %eom, ptr noundef %size, ptr noundef nonnull align 8 dereferenceable(40) %extraHeaders) unnamed_addr #4 align 2 {
entry:
  %this.addr = alloca ptr, align 8
  %writeBuf.addr = alloca ptr, align 8
  %stream.addr = alloca i64, align 8
  %msg.addr = alloca ptr, align 8
  %eom.addr = alloca i8, align 1
  %size.addr = alloca ptr, align 8
  %extraHeaders.addr = alloca ptr, align 8
  %ref.tmp = alloca %"class.folly::Optional", align 8
  %ref.tmp2 = alloca %"class.folly::Optional.48", align 8
  store ptr %this, ptr %this.addr, align 8
  store ptr %writeBuf, ptr %writeBuf.addr, align 8
  store i64 %stream, ptr %stream.addr, align 8
  store ptr %msg, ptr %msg.addr, align 8
  %frombool = zext i1 %eom to i8
  store i8 %frombool, ptr %eom.addr, align 1
  store ptr %size, ptr %size.addr, align 8
  store ptr %extraHeaders, ptr %extraHeaders.addr, align 8
  %this1 = load ptr, ptr %this.addr, align 8
  %0 = load ptr, ptr %writeBuf.addr, align 8
  %1 = load i64, ptr %stream.addr, align 8
  %2 = load ptr, ptr %msg.addr, align 8
  call void @_ZN5folly8OptionalImEC2ERKNS_4NoneE(ptr noundef nonnull align 8 dereferenceable(16) %ref.tmp, ptr noundef nonnull align 1 dereferenceable(1) @_ZN5follyL4noneE) #3
  call void @_ZN5folly8OptionalIN8proxygen9HTTPCodec12ExAttributesEEC2ERKNS_4NoneE(ptr noundef nonnull align 8 dereferenceable(24) %ref.tmp2, ptr noundef nonnull align 1 dereferenceable(1) @_ZN5follyL4noneE) #3
  %3 = load i8, ptr %eom.addr, align 1
  %tobool = trunc i8 %3 to i1
  %4 = load ptr, ptr %size.addr, align 8
  %5 = load ptr, ptr %extraHeaders.addr, align 8
  call void @_ZN8proxygen10HTTP2Codec18generateHeaderImplERN5folly10IOBufQueueEmRKNS_11HTTPMessageERKNS1_8OptionalImEERKNS7_INS_9HTTPCodec12ExAttributesEEEbPNS_14HTTPHeaderSizeERKNS7_INS_11HTTPHeadersEEE(ptr noundef nonnull align 8 dereferenceable(1062) %this1, ptr noundef nonnull align 8 dereferenceable(72) %0, i64 noundef %1, ptr noundef nonnull align 8 dereferenceable(616) %2, ptr noundef nonnull align 8 dereferenceable(16) %ref.tmp, ptr noundef nonnull align 8 dereferenceable(24) %ref.tmp2, i1 noundef zeroext %tobool, ptr noundef %4, ptr noundef nonnull align 8 dereferenceable(40) %5)
  ret void
}