; Function Attrs: mustprogress uwtable
define void @_ZN8proxygen10HTTP2Codec14generateHeaderERN5folly10IOBufQueueEmRKNS_11HTTPMessageEbPNS_14HTTPHeaderSizeERKNS1_8OptionalINS_11HTTPHeadersEEE(ptr noundef nonnull align 8 dereferenceable(1062) %this, ptr noundef nonnull align 8 dereferenceable(72) %writeBuf, i64 noundef %stream, ptr noundef nonnull align 8 dereferenceable(616) %msg, i1 noundef zeroext %eom, ptr noundef %size, ptr noundef nonnull align 8 dereferenceable(40) %extraHeaders) unnamed_addr #3 align 2 personality ptr @__gxx_personality_v0 {
entry:
  %ref.tmp = alloca %"class.folly::Optional", align 8
  %ref.tmp2 = alloca %"class.folly::Optional.48", align 8
  store i8 0, ptr %ref.tmp, align 8
  %hasValue.i.i = getelementptr inbounds i8, ptr %ref.tmp, i64 8
  store i8 0, ptr %hasValue.i.i, align 8
  store i8 0, ptr %ref.tmp2, align 8
  %hasValue.i.i1 = getelementptr inbounds i8, ptr %ref.tmp2, i64 16
  store i8 0, ptr %hasValue.i.i1, align 8
  call void @_ZN8proxygen10HTTP2Codec18generateHeaderImplERN5folly10IOBufQueueEmRKNS_11HTTPMessageERKNS1_8OptionalImEERKNS7_INS_9HTTPCodec12ExAttributesEEEbPNS_14HTTPHeaderSizeERKNS7_INS_11HTTPHeadersEEE(ptr noundef nonnull align 8 dereferenceable(1062) %this, ptr noundef nonnull align 8 dereferenceable(72) %writeBuf, i64 noundef %stream, ptr noundef nonnull align 8 dereferenceable(616) %msg, ptr noundef nonnull align 8 dereferenceable(16) %ref.tmp, ptr noundef nonnull align 8 dereferenceable(24) %ref.tmp2, i1 noundef zeroext %eom, ptr noundef %size, ptr noundef nonnull align 8 dereferenceable(40) %extraHeaders)
  ret void
}